target datalayout = "e-m:e-p270:32:32-p271:32:32-p272:64:64-i64:64-i128:128-f80:128-n8:16:32:64-S128"
target triple = "x86_64-pc-linux-gnu"

%"struct.duckdb_zstd::ZSTD_frameHeader" = type { i64, i64, i32, i32, i32, i32, i32, i32, i32 }
%"struct.duckdb_zstd::ZSTD_frameSizeInfo" = type { i64, i64, i64 }

; Function Attrs: mustprogress nounwind uwtable
define internal noundef i32 @_ZN11duckdb_zstdL11ERR_isErrorEm(i64 noundef %0) #2 {
  %2 = alloca i64, align 8
  store i64 %0, ptr %2, align 8, !tbaa !34
  %3 = load i64, ptr %2, align 8, !tbaa !34
  %4 = icmp ugt i64 %3, -120
  %5 = zext i1 %4 to i32
  ret i32 %5
}

; Function Attrs: mustprogress uwtable
define noundef i64 @_ZN11duckdb_zstd19ZSTD_getFrameHeaderEPNS_16ZSTD_frameHeaderEPKvm(ptr noundef %0, ptr noundef %1, i64 noundef %2) #0 {
  %4 = alloca ptr, align 8
  %5 = alloca ptr, align 8
  %6 = alloca i64, align 8
  store ptr %0, ptr %4, align 8, !tbaa !33
  store ptr %1, ptr %5, align 8, !tbaa !33
  store i64 %2, ptr %6, align 8, !tbaa !34
  %7 = load ptr, ptr %4, align 8, !tbaa !33
  %8 = load ptr, ptr %5, align 8, !tbaa !33
  %9 = load i64, ptr %6, align 8, !tbaa !34
  %10 = call noundef i64 @_ZN11duckdb_zstd28ZSTD_getFrameHeader_advancedEPNS_16ZSTD_frameHeaderEPKvmNS_13ZSTD_format_eE(ptr noundef %7, ptr noundef %8, i64 noundef %9, i32 noundef 0)
  ret i64 %10
}

; Function Attrs: mustprogress uwtable
define noundef i64 @_ZN11duckdb_zstd24ZSTD_decompressionMarginEPKvm(ptr noundef %0, i64 noundef %1) #0 {
  %3 = alloca i64, align 8
  %4 = alloca ptr, align 8
  %5 = alloca i64, align 8
  %6 = alloca i64, align 8
  %7 = alloca i32, align 4
  %8 = alloca %"struct.duckdb_zstd::ZSTD_frameSizeInfo", align 8
  %9 = alloca i64, align 8
  %10 = alloca i64, align 8
  %11 = alloca %"struct.duckdb_zstd::ZSTD_frameHeader", align 8
  %12 = alloca i64, align 8
  %13 = alloca i32, align 4
  store ptr %0, ptr %4, align 8, !tbaa !33
  store i64 %1, ptr %5, align 8, !tbaa !34
  call void @llvm.lifetime.start.p0(i64 8, ptr %6) #12
  store i64 0, ptr %6, align 8, !tbaa !34
  call void @llvm.lifetime.start.p0(i64 4, ptr %7) #12
  store i32 0, ptr %7, align 4, !tbaa !54
  br label %14

14:                                               ; preds = %104, %2
  %15 = load i64, ptr %5, align 8, !tbaa !34
  %16 = icmp ugt i64 %15, 0
  br i1 %16, label %17, label %105

17:                                               ; preds = %14
  call void @llvm.lifetime.start.p0(i64 24, ptr %8) #12
  %18 = load ptr, ptr %4, align 8, !tbaa !33
  %19 = load i64, ptr %5, align 8, !tbaa !34
  call void @_ZN11duckdb_zstdL22ZSTD_findFrameSizeInfoEPKvmNS_13ZSTD_format_eE(ptr dead_on_unwind writable sret(%"struct.duckdb_zstd::ZSTD_frameSizeInfo") align 8 %8, ptr noundef %18, i64 noundef %19, i32 noundef 0)
  call void @llvm.lifetime.start.p0(i64 8, ptr %9) #12
  %20 = getelementptr inbounds nuw %"struct.duckdb_zstd::ZSTD_frameSizeInfo", ptr %8, i32 0, i32 1
  %21 = load i64, ptr %20, align 8, !tbaa !69
  store i64 %21, ptr %9, align 8, !tbaa !34
  call void @llvm.lifetime.start.p0(i64 8, ptr %10) #12
  %22 = getelementptr inbounds nuw %"struct.duckdb_zstd::ZSTD_frameSizeInfo", ptr %8, i32 0, i32 2
  %23 = load i64, ptr %22, align 8, !tbaa !71
  store i64 %23, ptr %10, align 8, !tbaa !66
  call void @llvm.lifetime.start.p0(i64 48, ptr %11) #12
  br label %24

24:                                               ; preds = %17
  call void @llvm.lifetime.start.p0(i64 8, ptr %12) #12
  %25 = load ptr, ptr %4, align 8, !tbaa !33
  %26 = load i64, ptr %5, align 8, !tbaa !34
  %27 = call noundef i64 @_ZN11duckdb_zstd19ZSTD_getFrameHeaderEPNS_16ZSTD_frameHeaderEPKvm(ptr noundef %11, ptr noundef %25, i64 noundef %26)
  store i64 %27, ptr %12, align 8, !tbaa !34
  %28 = load i64, ptr %12, align 8, !tbaa !34
  %29 = call noundef i32 @_ZN11duckdb_zstdL11ERR_isErrorEm(i64 noundef %28)
  %30 = icmp ne i32 %29, 0
  br i1 %30, label %31, label %45

31:                                               ; preds = %24
  br label %32

32:                                               ; preds = %31
  br label %33

33:                                               ; preds = %32
  br label %34

34:                                               ; preds = %33
  br label %35

35:                                               ; preds = %34
  br label %36

36:                                               ; preds = %35
  br label %37

37:                                               ; preds = %36
  br label %38

38:                                               ; preds = %37
  br label %39

39:                                               ; preds = %38
  br label %40

40:                                               ; preds = %39
  br label %41

41:                                               ; preds = %40
  br label %42

42:                                               ; preds = %41
  br label %43

43:                                               ; preds = %42
  %44 = load i64, ptr %12, align 8, !tbaa !34
  store i64 %44, ptr %3, align 8
  store i32 1, ptr %13, align 4
  br label %46

45:                                               ; preds = %24
  store i32 0, ptr %13, align 4
  br label %46

46:                                               ; preds = %45, %43
  call void @llvm.lifetime.end.p0(i64 8, ptr %12) #12
  %47 = load i32, ptr %13, align 4
  switch i32 %47, label %102 [
    i32 0, label %48
  ]

48:                                               ; preds = %46
  br label %49

49:                                               ; preds = %48
  br label %50

50:                                               ; preds = %49
  %51 = load i64, ptr %9, align 8, !tbaa !34
  %52 = call noundef i32 @_ZN11duckdb_zstdL11ERR_isErrorEm(i64 noundef %51)
  %53 = icmp ne i32 %52, 0
  br i1 %53, label %57, label %54

54:                                               ; preds = %50
  %55 = load i64, ptr %10, align 8, !tbaa !66
  %56 = icmp eq i64 %55, -2
  br i1 %56, label %57, label %58

57:                                               ; preds = %54, %50
  store i64 -20, ptr %3, align 8
  store i32 1, ptr %13, align 4
  br label %102

58:                                               ; preds = %54
  %59 = getelementptr inbounds nuw %"struct.duckdb_zstd::ZSTD_frameHeader", ptr %11, i32 0, i32 3
  %60 = load i32, ptr %59, align 4, !tbaa !59
  %61 = icmp eq i32 %60, 0
  br i1 %61, label %62, label %91

62:                                               ; preds = %58
  %63 = getelementptr inbounds nuw %"struct.duckdb_zstd::ZSTD_frameHeader", ptr %11, i32 0, i32 4
  %64 = load i32, ptr %63, align 8, !tbaa !60
  %65 = zext i32 %64 to i64
  %66 = load i64, ptr %6, align 8, !tbaa !34
  %67 = add i64 %66, %65
  store i64 %67, ptr %6, align 8, !tbaa !34
  %68 = getelementptr inbounds nuw %"struct.duckdb_zstd::ZSTD_frameHeader", ptr %11, i32 0, i32 6
  %69 = load i32, ptr %68, align 8, !tbaa !64
  %70 = icmp ne i32 %69, 0
  %71 = select i1 %70, i32 4, i32 0
  %72 = sext i32 %71 to i64
  %73 = load i64, ptr %6, align 8, !tbaa !34
  %74 = add i64 %73, %72
  store i64 %74, ptr %6, align 8, !tbaa !34
  %75 = getelementptr inbounds nuw %"struct.duckdb_zstd::ZSTD_frameSizeInfo", ptr %8, i32 0, i32 0
  %76 = load i64, ptr %75, align 8, !tbaa !77
  %77 = mul i64 3, %76
  %78 = load i64, ptr %6, align 8, !tbaa !34
  %79 = add i64 %78, %77
  store i64 %79, ptr %6, align 8, !tbaa !34
  %80 = load i32, ptr %7, align 4, !tbaa !54
  %81 = getelementptr inbounds nuw %"struct.duckdb_zstd::ZSTD_frameHeader", ptr %11, i32 0, i32 2
  %82 = load i32, ptr %81, align 8, !tbaa !62
  %83 = icmp ugt i32 %80, %82
  br i1 %83, label %84, label %86

84:                                               ; preds = %62
  %85 = load i32, ptr %7, align 4, !tbaa !54
  br label %89

86:                                               ; preds = %62
  %87 = getelementptr inbounds nuw %"struct.duckdb_zstd::ZSTD_frameHeader", ptr %11, i32 0, i32 2
  %88 = load i32, ptr %87, align 8, !tbaa !62
  br label %89

89:                                               ; preds = %86, %84
  %90 = phi i32 [ %85, %84 ], [ %88, %86 ]
  store i32 %90, ptr %7, align 4, !tbaa !54
  br label %95

91:                                               ; preds = %58
  %92 = load i64, ptr %9, align 8, !tbaa !34
  %93 = load i64, ptr %6, align 8, !tbaa !34
  %94 = add i64 %93, %92
  store i64 %94, ptr %6, align 8, !tbaa !34
  br label %95

95:                                               ; preds = %91, %89
  %96 = load ptr, ptr %4, align 8, !tbaa !33
  %97 = load i64, ptr %9, align 8, !tbaa !34
  %98 = getelementptr inbounds nuw i8, ptr %96, i64 %97
  store ptr %98, ptr %4, align 8, !tbaa !33
  %99 = load i64, ptr %9, align 8, !tbaa !34
  %100 = load i64, ptr %5, align 8, !tbaa !34
  %101 = sub i64 %100, %99
  store i64 %101, ptr %5, align 8, !tbaa !34
  store i32 0, ptr %13, align 4
  br label %102

102:                                              ; preds = %95, %57, %46
  call void @llvm.lifetime.end.p0(i64 48, ptr %11) #12
  call void @llvm.lifetime.end.p0(i64 8, ptr %10) #12
  call void @llvm.lifetime.end.p0(i64 8, ptr %9) #12
  call void @llvm.lifetime.end.p0(i64 24, ptr %8) #12
  %103 = load i32, ptr %13, align 4
  switch i32 %103, label %111 [
    i32 0, label %104
  ]

104:                                              ; preds = %102
  br label %14, !llvm.loop !78

105:                                              ; preds = %14
  %106 = load i32, ptr %7, align 4, !tbaa !54
  %107 = zext i32 %106 to i64
  %108 = load i64, ptr %6, align 8, !tbaa !34
  %109 = add i64 %108, %107
  store i64 %109, ptr %6, align 8, !tbaa !34
  %110 = load i64, ptr %6, align 8, !tbaa !34
  store i64 %110, ptr %3, align 8
  store i32 1, ptr %13, align 4
  br label %111

111:                                              ; preds = %105, %102
  call void @llvm.lifetime.end.p0(i64 4, ptr %7) #12
  call void @llvm.lifetime.end.p0(i64 8, ptr %6) #12
  %112 = load i64, ptr %3, align 8
  ret i64 %112
}